target datalayout = "e-m:e-p270:32:32-p271:32:32-p272:64:64-i64:64-i128:128-f80:128-n8:16:32:64-S128"
target triple = "x86_64-pc-linux-gnu"

%struct.ident_t = type { i32, i32, i32, i32, ptr }
%class.anon.123 = type { ptr, ptr, ptr }

@1 = private unnamed_addr constant %struct.ident_t { i32 0, i32 514, i32 0, i32 22, ptr @0 }, align 8

; Function Attrs: inlinehint mustprogress nounwind ssp uwtable
define linkonce_odr hidden void @_ZN6open3d1t8geometry6kernel9transform18RotatePointsKernelIfEEvPKT_PS5_S7_(ptr noundef %0, ptr noundef %1, ptr noundef %2) #3 comdat {
  %4 = alloca ptr, align 8
  %5 = alloca ptr, align 8
  %6 = alloca ptr, align 8
  %7 = alloca [3 x float], align 4
  store ptr %0, ptr %4, align 8, !tbaa !21
  store ptr %1, ptr %5, align 8, !tbaa !21
  store ptr %2, ptr %6, align 8, !tbaa !21
  call void @llvm.lifetime.start.p0(i64 12, ptr %7) #25
  %8 = load ptr, ptr %5, align 8, !tbaa !21
  %9 = getelementptr inbounds float, ptr %8, i64 0
  %10 = load float, ptr %9, align 4, !tbaa !136
  %11 = load ptr, ptr %6, align 8, !tbaa !21
  %12 = getelementptr inbounds float, ptr %11, i64 0
  %13 = load float, ptr %12, align 4, !tbaa !136
  %14 = fsub float %10, %13
  store float %14, ptr %7, align 4, !tbaa !136
  %15 = getelementptr inbounds float, ptr %7, i64 1
  %16 = load ptr, ptr %5, align 8, !tbaa !21
  %17 = getelementptr inbounds float, ptr %16, i64 1
  %18 = load float, ptr %17, align 4, !tbaa !136
  %19 = load ptr, ptr %6, align 8, !tbaa !21
  %20 = getelementptr inbounds float, ptr %19, i64 1
  %21 = load float, ptr %20, align 4, !tbaa !136
  %22 = fsub float %18, %21
  store float %22, ptr %15, align 4, !tbaa !136
  %23 = getelementptr inbounds float, ptr %7, i64 2
  %24 = load ptr, ptr %5, align 8, !tbaa !21
  %25 = getelementptr inbounds float, ptr %24, i64 2
  %26 = load float, ptr %25, align 4, !tbaa !136
  %27 = load ptr, ptr %6, align 8, !tbaa !21
  %28 = getelementptr inbounds float, ptr %27, i64 2
  %29 = load float, ptr %28, align 4, !tbaa !136
  %30 = fsub float %26, %29
  store float %30, ptr %23, align 4, !tbaa !136
  %31 = load ptr, ptr %4, align 8, !tbaa !21
  %32 = getelementptr inbounds float, ptr %31, i64 0
  %33 = load float, ptr %32, align 4, !tbaa !136
  %34 = getelementptr inbounds [3 x float], ptr %7, i64 0, i64 0
  %35 = load float, ptr %34, align 4, !tbaa !136
  %36 = load ptr, ptr %4, align 8, !tbaa !21
  %37 = getelementptr inbounds float, ptr %36, i64 1
  %38 = load float, ptr %37, align 4, !tbaa !136
  %39 = getelementptr inbounds [3 x float], ptr %7, i64 0, i64 1
  %40 = load float, ptr %39, align 4, !tbaa !136
  %41 = fmul float %38, %40
  %42 = call float @llvm.fmuladd.f32(float %33, float %35, float %41)
  %43 = load ptr, ptr %4, align 8, !tbaa !21
  %44 = getelementptr inbounds float, ptr %43, i64 2
  %45 = load float, ptr %44, align 4, !tbaa !136
  %46 = getelementptr inbounds [3 x float], ptr %7, i64 0, i64 2
  %47 = load float, ptr %46, align 4, !tbaa !136
  %48 = call float @llvm.fmuladd.f32(float %45, float %47, float %42)
  %49 = load ptr, ptr %6, align 8, !tbaa !21
  %50 = getelementptr inbounds float, ptr %49, i64 0
  %51 = load float, ptr %50, align 4, !tbaa !136
  %52 = fadd float %48, %51
  %53 = load ptr, ptr %5, align 8, !tbaa !21
  %54 = getelementptr inbounds float, ptr %53, i64 0
  store float %52, ptr %54, align 4, !tbaa !136
  %55 = load ptr, ptr %4, align 8, !tbaa !21
  %56 = getelementptr inbounds float, ptr %55, i64 3
  %57 = load float, ptr %56, align 4, !tbaa !136
  %58 = getelementptr inbounds [3 x float], ptr %7, i64 0, i64 0
  %59 = load float, ptr %58, align 4, !tbaa !136
  %60 = load ptr, ptr %4, align 8, !tbaa !21
  %61 = getelementptr inbounds float, ptr %60, i64 4
  %62 = load float, ptr %61, align 4, !tbaa !136
  %63 = getelementptr inbounds [3 x float], ptr %7, i64 0, i64 1
  %64 = load float, ptr %63, align 4, !tbaa !136
  %65 = fmul float %62, %64
  %66 = call float @llvm.fmuladd.f32(float %57, float %59, float %65)
  %67 = load ptr, ptr %4, align 8, !tbaa !21
  %68 = getelementptr inbounds float, ptr %67, i64 5
  %69 = load float, ptr %68, align 4, !tbaa !136
  %70 = getelementptr inbounds [3 x float], ptr %7, i64 0, i64 2
  %71 = load float, ptr %70, align 4, !tbaa !136
  %72 = call float @llvm.fmuladd.f32(float %69, float %71, float %66)
  %73 = load ptr, ptr %6, align 8, !tbaa !21
  %74 = getelementptr inbounds float, ptr %73, i64 1
  %75 = load float, ptr %74, align 4, !tbaa !136
  %76 = fadd float %72, %75
  %77 = load ptr, ptr %5, align 8, !tbaa !21
  %78 = getelementptr inbounds float, ptr %77, i64 1
  store float %76, ptr %78, align 4, !tbaa !136
  %79 = load ptr, ptr %4, align 8, !tbaa !21
  %80 = getelementptr inbounds float, ptr %79, i64 6
  %81 = load float, ptr %80, align 4, !tbaa !136
  %82 = getelementptr inbounds [3 x float], ptr %7, i64 0, i64 0
  %83 = load float, ptr %82, align 4, !tbaa !136
  %84 = load ptr, ptr %4, align 8, !tbaa !21
  %85 = getelementptr inbounds float, ptr %84, i64 7
  %86 = load float, ptr %85, align 4, !tbaa !136
  %87 = getelementptr inbounds [3 x float], ptr %7, i64 0, i64 1
  %88 = load float, ptr %87, align 4, !tbaa !136
  %89 = fmul float %86, %88
  %90 = call float @llvm.fmuladd.f32(float %81, float %83, float %89)
  %91 = load ptr, ptr %4, align 8, !tbaa !21
  %92 = getelementptr inbounds float, ptr %91, i64 8
  %93 = load float, ptr %92, align 4, !tbaa !136
  %94 = getelementptr inbounds [3 x float], ptr %7, i64 0, i64 2
  %95 = load float, ptr %94, align 4, !tbaa !136
  %96 = call float @llvm.fmuladd.f32(float %93, float %95, float %90)
  %97 = load ptr, ptr %6, align 8, !tbaa !21
  %98 = getelementptr inbounds float, ptr %97, i64 2
  %99 = load float, ptr %98, align 4, !tbaa !136
  %100 = fadd float %96, %99
  %101 = load ptr, ptr %5, align 8, !tbaa !21
  %102 = getelementptr inbounds float, ptr %101, i64 2
  store float %100, ptr %102, align 4, !tbaa !136
  call void @llvm.lifetime.end.p0(i64 12, ptr %7) #25
  ret void
}

; Function Attrs: noinline noreturn nounwind ssp uwtable
define linkonce_odr hidden void @__clang_call_terminate(ptr noundef %0) #23 comdat {
  %2 = call ptr @__cxa_begin_catch(ptr %0) #25
  call void @_ZSt9terminatev() #28
  unreachable
}

; Function Attrs: inlinehint mustprogress ssp uwtable
define internal void @"_ZZZZN6open3d1t8geometry6kernel9transform15RotatePointsCPUERKNS_4core6TensorERS5_S7_ENK3$_0clEvENKUlvE_clEvENKUllE_clEl"(ptr noundef nonnull align 8 dereferenceable(24) %0, i64 noundef %1) #2 align 2 {
  %3 = alloca ptr, align 8
  %4 = alloca i64, align 8
  store ptr %0, ptr %3, align 8, !tbaa !9
  store i64 %1, ptr %4, align 8, !tbaa !16
  %5 = load ptr, ptr %3, align 8
  %6 = getelementptr inbounds nuw %class.anon.123, ptr %5, i32 0, i32 0
  %7 = load ptr, ptr %6, align 8, !tbaa !804
  %8 = getelementptr inbounds nuw %class.anon.123, ptr %5, i32 0, i32 1
  %9 = load ptr, ptr %8, align 8, !tbaa !806
  %10 = load i64, ptr %4, align 8, !tbaa !16
  %11 = mul nsw i64 3, %10
  %12 = getelementptr inbounds float, ptr %9, i64 %11
  %13 = getelementptr inbounds nuw %class.anon.123, ptr %5, i32 0, i32 2
  %14 = load ptr, ptr %13, align 8, !tbaa !807
  call void @_ZN6open3d1t8geometry6kernel9transform18RotatePointsKernelIfEEvPKT_PS5_S7_(ptr noundef %7, ptr noundef %12, ptr noundef %14)
  ret void
}

; Function Attrs: alwaysinline norecurse nounwind ssp uwtable
define internal void @"_ZN6open3d4core15ParallelForCPU_IZZZNS_1t8geometry6kernel9transform15RotatePointsCPUERKNS0_6TensorERS6_S8_ENK3$_0clEvENKUlvE_clEvEUllE_EEvRKNS0_6DeviceElRKT_.omp_outlined"(ptr noalias noundef %0, ptr noalias noundef %1, ptr noundef nonnull align 8 dereferenceable(8) %2, ptr noundef nonnull align 8 dereferenceable(24) %3) #24 personality ptr @__gxx_personality_v0 {
  %5 = alloca ptr, align 8
  %6 = alloca ptr, align 8
  %7 = alloca ptr, align 8
  %8 = alloca ptr, align 8
  %9 = alloca ptr, align 8
  %10 = alloca i64, align 8
  %11 = alloca i64, align 8
  %12 = alloca i64, align 8
  %13 = alloca i64, align 8
  %14 = alloca i64, align 8
  %15 = alloca i64, align 8
  %16 = alloca i64, align 8
  %17 = alloca i32, align 4
  %18 = alloca i64, align 8
  store ptr %0, ptr %5, align 8, !tbaa !209
  store ptr %1, ptr %6, align 8, !tbaa !209
  store ptr %2, ptr %7, align 8, !tbaa !351
  store ptr %3, ptr %8, align 8, !tbaa !9
  %19 = load ptr, ptr %7, align 8, !tbaa !351
  %20 = load ptr, ptr %8, align 8, !tbaa !9
  store ptr %20, ptr %9, align 8
  call void @llvm.lifetime.start.p0(i64 8, ptr %10) #25
  call void @llvm.lifetime.start.p0(i64 8, ptr %11) #25
  %21 = load i64, ptr %19, align 8, !tbaa !16
  store i64 %21, ptr %11, align 8, !tbaa !16
  call void @llvm.lifetime.start.p0(i64 8, ptr %12) #25
  %22 = load i64, ptr %11, align 8, !tbaa !16
  %23 = sub nsw i64 %22, 0
  %24 = sdiv i64 %23, 1
  %25 = sub nsw i64 %24, 1
  store i64 %25, ptr %12, align 8, !tbaa !16
  call void @llvm.lifetime.start.p0(i64 8, ptr %13) #25
  store i64 0, ptr %13, align 8, !tbaa !16
  call void @llvm.lifetime.end.p0(i64 8, ptr %13) #25
  %26 = load i64, ptr %11, align 8, !tbaa !16
  %27 = icmp slt i64 0, %26
  br i1 %27, label %28, label %62

28:                                               ; preds = %4
  call void @llvm.lifetime.start.p0(i64 8, ptr %14) #25
  store i64 0, ptr %14, align 8, !tbaa !16
  call void @llvm.lifetime.start.p0(i64 8, ptr %15) #25
  %29 = load i64, ptr %12, align 8, !tbaa !16
  store i64 %29, ptr %15, align 8, !tbaa !16
  call void @llvm.lifetime.start.p0(i64 8, ptr %16) #25
  store i64 1, ptr %16, align 8, !tbaa !16
  call void @llvm.lifetime.start.p0(i64 4, ptr %17) #25
  store i32 0, ptr %17, align 4, !tbaa !39
  call void @llvm.lifetime.start.p0(i64 8, ptr %18) #25
  %30 = load ptr, ptr %5, align 8
  %31 = load i32, ptr %30, align 4, !tbaa !39
  call void @__kmpc_for_static_init_8(ptr @1, i32 %31, i32 34, ptr %17, ptr %14, ptr %15, ptr %16, i64 1, i64 1)
  %32 = load i64, ptr %15, align 8, !tbaa !16
  %33 = load i64, ptr %12, align 8, !tbaa !16
  %34 = icmp sgt i64 %32, %33
  br i1 %34, label %35, label %37

35:                                               ; preds = %28
  %36 = load i64, ptr %12, align 8, !tbaa !16
  br label %39

37:                                               ; preds = %28
  %38 = load i64, ptr %15, align 8, !tbaa !16
  br label %39

39:                                               ; preds = %37, %35
  %40 = phi i64 [ %36, %35 ], [ %38, %37 ]
  store i64 %40, ptr %15, align 8, !tbaa !16
  %41 = load i64, ptr %14, align 8, !tbaa !16
  store i64 %41, ptr %10, align 8, !tbaa !16
  br label %42

42:                                               ; preds = %55, %39
  %43 = load i64, ptr %10, align 8, !tbaa !16
  %44 = load i64, ptr %15, align 8, !tbaa !16
  %45 = icmp sle i64 %43, %44
  br i1 %45, label %47, label %46

46:                                               ; preds = %42
  br label %58

47:                                               ; preds = %42
  %48 = load i64, ptr %10, align 8, !tbaa !16
  %49 = mul nsw i64 %48, 1
  %50 = add nsw i64 0, %49
  store i64 %50, ptr %18, align 8, !tbaa !16
  %51 = load ptr, ptr %9, align 8, !tbaa !9
  %52 = load i64, ptr %18, align 8, !tbaa !16
  invoke void @"_ZZZZN6open3d1t8geometry6kernel9transform15RotatePointsCPUERKNS_4core6TensorERS5_S7_ENK3$_0clEvENKUlvE_clEvENKUllE_clEl"(ptr noundef nonnull align 8 dereferenceable(24) %51, i64 noundef %52)
          to label %53 unwind label %63

53:                                               ; preds = %47
  br label %54

54:                                               ; preds = %53
  br label %55

55:                                               ; preds = %54
  %56 = load i64, ptr %10, align 8, !tbaa !16
  %57 = add nsw i64 %56, 1
  store i64 %57, ptr %10, align 8, !tbaa !16
  br label %42

58:                                               ; preds = %46
  br label %59

59:                                               ; preds = %58
  %60 = load ptr, ptr %5, align 8
  %61 = load i32, ptr %60, align 4, !tbaa !39
  call void @__kmpc_for_static_fini(ptr @1, i32 %61)
  call void @llvm.lifetime.end.p0(i64 8, ptr %18) #25
  call void @llvm.lifetime.end.p0(i64 4, ptr %17) #25
  call void @llvm.lifetime.end.p0(i64 8, ptr %16) #25
  call void @llvm.lifetime.end.p0(i64 8, ptr %15) #25
  call void @llvm.lifetime.end.p0(i64 8, ptr %14) #25
  br label %62

62:                                               ; preds = %59, %4
  call void @llvm.lifetime.end.p0(i64 8, ptr %12) #25
  call void @llvm.lifetime.end.p0(i64 8, ptr %11) #25
  call void @llvm.lifetime.end.p0(i64 8, ptr %10) #25
  ret void

63:                                               ; preds = %47
  %64 = landingpad { ptr, i32 }
          catch ptr null
  %65 = extractvalue { ptr, i32 } %64, 0
  call void @__clang_call_terminate(ptr %65) #28
  unreachable
}