; Function Attrs: alwaysinline norecurse nounwind ssp uwtable
define internal void @"_ZN6open3d4core15ParallelForCPU_IZZZNS_1t8geometry6kernel9transform15RotatePointsCPUERKNS0_6TensorERS6_S8_ENK3$_0clEvENKUlvE_clEvEUllE_EEvRKNS0_6DeviceElRKT_.omp_outlined"(ptr noalias noundef readonly captures(none) %0, ptr noalias readnone captures(none) %1, ptr noundef nonnull readonly align 8 captures(none) dereferenceable(8) %2, ptr noundef nonnull readonly align 8 captures(none) dereferenceable(24) %3) #23 personality ptr @__gxx_personality_v0 {
  %5 = alloca i64, align 8
  %6 = alloca i64, align 8
  %7 = alloca i64, align 8
  %8 = alloca i32, align 4
  %9 = load i64, ptr %2, align 8, !tbaa !9
  %10 = icmp sgt i64 %9, 0
  br i1 %10, label %11, label %69

11:                                               ; preds = %4
  %12 = add nsw i64 %9, -1
  call void @llvm.lifetime.start.p0(i64 8, ptr nonnull %5) #24
  store i64 0, ptr %5, align 8, !tbaa !9
  call void @llvm.lifetime.start.p0(i64 8, ptr nonnull %6) #24
  store i64 %12, ptr %6, align 8, !tbaa !9
  call void @llvm.lifetime.start.p0(i64 8, ptr nonnull %7) #24
  store i64 1, ptr %7, align 8, !tbaa !9
  call void @llvm.lifetime.start.p0(i64 4, ptr nonnull %8) #24
  store i32 0, ptr %8, align 4, !tbaa !146
  %13 = load i32, ptr %0, align 4, !tbaa !146
  call void @__kmpc_for_static_init_8(ptr nonnull @1, i32 %13, i32 34, ptr nonnull %8, ptr nonnull %5, ptr nonnull %6, ptr nonnull %7, i64 1, i64 1)
  %14 = load i64, ptr %6, align 8, !tbaa !9
  %15 = call i64 @llvm.smin.i64(i64 %14, i64 %12)
  store i64 %15, ptr %6, align 8, !tbaa !9
  %16 = load i64, ptr %5, align 8, !tbaa !9
  %.not13 = icmp sgt i64 %16, %15
  br i1 %.not13, label %._crit_edge, label %.lr.ph

.lr.ph:                                           ; preds = %11
  %17 = load ptr, ptr %3, align 8, !tbaa !647
  %18 = getelementptr inbounds nuw i8, ptr %3, i64 8
  %19 = load ptr, ptr %18, align 8, !tbaa !649
  %20 = getelementptr inbounds nuw i8, ptr %3, i64 16
  %21 = load ptr, ptr %20, align 8, !tbaa !650
  %22 = getelementptr inbounds nuw i8, ptr %21, i64 4
  %23 = getelementptr inbounds nuw i8, ptr %21, i64 8
  %24 = getelementptr inbounds nuw i8, ptr %17, i64 4
  %25 = getelementptr inbounds nuw i8, ptr %17, i64 8
  %26 = getelementptr inbounds nuw i8, ptr %17, i64 12
  %27 = getelementptr inbounds nuw i8, ptr %17, i64 16
  %28 = getelementptr inbounds nuw i8, ptr %17, i64 20
  %29 = getelementptr inbounds nuw i8, ptr %17, i64 24
  %30 = getelementptr inbounds nuw i8, ptr %17, i64 28
  %31 = getelementptr inbounds nuw i8, ptr %17, i64 32
  br label %32

32:                                               ; preds = %.lr.ph, %32
  %.014 = phi i64 [ %16, %.lr.ph ], [ %68, %32 ]
  %.idx.i = mul nsw i64 %.014, 12
  %33 = getelementptr inbounds i8, ptr %19, i64 %.idx.i
  %34 = load float, ptr %33, align 4, !tbaa !635
  %35 = load float, ptr %21, align 4, !tbaa !635
  %36 = fsub float %34, %35
  %37 = getelementptr inbounds nuw i8, ptr %33, i64 4
  %38 = load float, ptr %37, align 4, !tbaa !635
  %39 = load float, ptr %22, align 4, !tbaa !635
  %40 = fsub float %38, %39
  %41 = getelementptr inbounds nuw i8, ptr %33, i64 8
  %42 = load float, ptr %41, align 4, !tbaa !635
  %43 = load float, ptr %23, align 4, !tbaa !635
  %44 = fsub float %42, %43
  %45 = load float, ptr %17, align 4, !tbaa !635
  %46 = load float, ptr %24, align 4, !tbaa !635
  %47 = fmul float %40, %46
  %48 = call float @llvm.fmuladd.f32(float %45, float %36, float %47)
  %49 = load float, ptr %25, align 4, !tbaa !635
  %50 = call float @llvm.fmuladd.f32(float %49, float %44, float %48)
  %51 = fadd float %35, %50
  store float %51, ptr %33, align 4, !tbaa !635
  %52 = load float, ptr %26, align 4, !tbaa !635
  %53 = load float, ptr %27, align 4, !tbaa !635
  %54 = fmul float %40, %53
  %55 = call float @llvm.fmuladd.f32(float %52, float %36, float %54)
  %56 = load float, ptr %28, align 4, !tbaa !635
  %57 = call float @llvm.fmuladd.f32(float %56, float %44, float %55)
  %58 = load float, ptr %22, align 4, !tbaa !635
  %59 = fadd float %58, %57
  store float %59, ptr %37, align 4, !tbaa !635
  %60 = load float, ptr %29, align 4, !tbaa !635
  %61 = load float, ptr %30, align 4, !tbaa !635
  %62 = fmul float %40, %61
  %63 = call float @llvm.fmuladd.f32(float %60, float %36, float %62)
  %64 = load float, ptr %31, align 4, !tbaa !635
  %65 = call float @llvm.fmuladd.f32(float %64, float %44, float %63)
  %66 = load float, ptr %23, align 4, !tbaa !635
  %67 = fadd float %66, %65
  store float %67, ptr %41, align 4, !tbaa !635
  %68 = add i64 %.014, 1
  %exitcond.not = icmp eq i64 %.014, %15
  br i1 %exitcond.not, label %._crit_edge, label %32

._crit_edge:                                      ; preds = %32, %11
  call void @__kmpc_for_static_fini(ptr nonnull @1, i32 %13)
  call void @llvm.lifetime.end.p0(i64 4, ptr nonnull %8) #24
  call void @llvm.lifetime.end.p0(i64 8, ptr nonnull %7) #24
  call void @llvm.lifetime.end.p0(i64 8, ptr nonnull %6) #24
  call void @llvm.lifetime.end.p0(i64 8, ptr nonnull %5) #24
  br label %69

69:                                               ; preds = %._crit_edge, %4
  ret void
}